; Function Attrs: nounwind uwtable
define ptr @l___private_Lean_Meta_ArgsPacker_0__Lean_Meta_ArgsPacker_Unary_curry___lambda__1___boxed(ptr noundef %0, ptr noundef %1, ptr noundef %2, ptr noundef %3, ptr noundef %4, ptr noundef %5, ptr noundef %6, ptr noundef %7, ptr noundef %8) local_unnamed_addr #1 {
  %10 = tail call ptr @l_Lean_Expr_bindingDomain_x21(ptr noundef %0) #7
  %11 = tail call ptr @lean_array_to_list(ptr noundef %1) #7
  %12 = load ptr, ptr @l_Lean_Meta_ArgsPacker_Unary_unpack___lambda__1___closed__1, align 8, !tbaa !12
  %13 = ptrtoint ptr %10 to i64
  %14 = and i64 %13, 1
  %.not.i15 = icmp eq i64 %14, 0
  br i1 %.not.i15, label %15, label %l___private_Lean_Meta_ArgsPacker_0__Lean_Meta_ArgsPacker_Unary_curry___lambda__1.exit

15:                                               ; preds = %9
  %.val.i.i = load i32, ptr %10, align 4, !tbaa !8
  %16 = icmp sgt i32 %.val.i.i, 0
  br i1 %16, label %17, label %19, !prof !11

17:                                               ; preds = %15
  %18 = add nuw i32 %.val.i.i, 1
  store i32 %18, ptr %10, align 4, !tbaa !8
  br label %l___private_Lean_Meta_ArgsPacker_0__Lean_Meta_ArgsPacker_Unary_curry___lambda__1.exit

19:                                               ; preds = %15
  %.not.i.i = icmp eq i32 %.val.i.i, 0
  br i1 %.not.i.i, label %l___private_Lean_Meta_ArgsPacker_0__Lean_Meta_ArgsPacker_Unary_curry___lambda__1.exit, label %20

20:                                               ; preds = %19
  tail call void @lean_inc_ref_cold(ptr noundef nonnull %10) #7
  br label %l___private_Lean_Meta_ArgsPacker_0__Lean_Meta_ArgsPacker_Unary_curry___lambda__1.exit

l___private_Lean_Meta_ArgsPacker_0__Lean_Meta_ArgsPacker_Unary_curry___lambda__1.exit: ; preds = %9, %17, %19, %20
  %21 = tail call ptr @l___private_Lean_Meta_ArgsPacker_0__Lean_Meta_ArgsPacker_Unary_curry_go(ptr noundef %2, ptr noundef %10, ptr noundef %10, ptr noundef %12, ptr noundef %11, ptr noundef %4, ptr noundef %5, ptr noundef %6, ptr noundef %7, ptr noundef %8)
  %22 = ptrtoint ptr %3 to i64
  %23 = and i64 %22, 1
  %.not = icmp eq i64 %23, 0
  br i1 %.not, label %24, label %lean_dec.exit12

24:                                               ; preds = %l___private_Lean_Meta_ArgsPacker_0__Lean_Meta_ArgsPacker_Unary_curry___lambda__1.exit
  %25 = load i32, ptr %3, align 4, !tbaa !8
  %26 = icmp sgt i32 %25, 1
  br i1 %26, label %27, label %29, !prof !11

27:                                               ; preds = %24
  %28 = add nsw i32 %25, -1
  store i32 %28, ptr %3, align 4, !tbaa !8
  br label %lean_dec.exit12

29:                                               ; preds = %24
  %.not.i = icmp eq i32 %25, 0
  br i1 %.not.i, label %lean_dec.exit12, label %30

30:                                               ; preds = %29
  tail call void @lean_dec_ref_cold(ptr noundef nonnull %3) #7
  br label %lean_dec.exit12

lean_dec.exit12:                                  ; preds = %30, %29, %27, %l___private_Lean_Meta_ArgsPacker_0__Lean_Meta_ArgsPacker_Unary_curry___lambda__1.exit
  %31 = ptrtoint ptr %0 to i64
  %32 = and i64 %31, 1
  %.not16 = icmp eq i64 %32, 0
  br i1 %.not16, label %33, label %lean_dec.exit

33:                                               ; preds = %lean_dec.exit12
  %34 = load i32, ptr %0, align 4, !tbaa !8
  %35 = icmp sgt i32 %34, 1
  br i1 %35, label %36, label %38, !prof !11

36:                                               ; preds = %33
  %37 = add nsw i32 %34, -1
  store i32 %37, ptr %0, align 4, !tbaa !8
  br label %lean_dec.exit

38:                                               ; preds = %33
  %.not.i13 = icmp eq i32 %34, 0
  br i1 %.not.i13, label %lean_dec.exit, label %39

39:                                               ; preds = %38
  tail call void @lean_dec_ref_cold(ptr noundef nonnull %0) #7
  br label %lean_dec.exit

lean_dec.exit:                                    ; preds = %39, %38, %36, %lean_dec.exit12
  ret ptr %21
}